target datalayout = "e-m:e-p270:32:32-p271:32:32-p272:64:64-i64:64-i128:128-f80:128-n8:16:32:64-S128"
target triple = "x86_64-pc-linux-gnu"

%struct.BrotliEncoderStateStruct = type { %struct.BrotliEncoderParams, %struct.MemoryManager, i64, %struct.RingBuffer, i64, ptr, i64, i64, i64, i64, i64, [16 x i32], [4 x i32], i16, i8, i8, i8, i8, i64, ptr, %struct.Hasher, [1024 x i32], ptr, i64, ptr, ptr, ptr, ptr, i64, ptr, i64, i64, %union.anon.0, i32, i32, i32, i32 }
%struct.BrotliEncoderParams = type { i32, i32, i32, i32, i64, i64, i32, i32, %struct.BrotliHasherParams, %struct.BrotliDistanceParams, %struct.SharedEncoderDictionary }
%struct.BrotliHasherParams = type { i32, i32, i32, i32 }
%struct.BrotliDistanceParams = type { i32, i32, i32, i32, i64 }
%struct.SharedEncoderDictionary = type { i32, %struct.CompoundDictionary, %struct.ContextualEncoderDictionary, i32 }
%struct.CompoundDictionary = type { i64, i64, [16 x ptr], [16 x ptr], [16 x i64], i64, [16 x ptr] }
%struct.ContextualEncoderDictionary = type { i32, i8, [64 x i8], [64 x ptr], i64, %struct.BrotliEncoderDictionary, ptr }
%struct.BrotliEncoderDictionary = type { ptr, i32, i32, i64, ptr, ptr, ptr, ptr, %struct.BrotliTrie, i32, ptr, ptr, ptr, i64, ptr, i64, ptr, ptr }
%struct.BrotliTrie = type { ptr, i64, i64, %struct.BrotliTrieNode }
%struct.BrotliTrieNode = type { i8, i8, i8, i32, i32 }
%struct.MemoryManager = type { ptr, ptr, ptr }
%struct.RingBuffer = type { i32, i32, i32, i32, i32, i32, ptr, ptr }
%struct.Hasher = type { %struct.HasherCommon, %union.anon }
%struct.HasherCommon = type { [4 x ptr], i32, i64, i64, %struct.BrotliHasherParams, i32 }
%union.anon = type { %struct.H42 }
%struct.H42 = type { [512 x i16], i64, [2 x ptr], ptr }
%union.anon.0 = type { [2 x i64] }
%struct.ManagedDictionary = type { i32, %struct.MemoryManager, ptr }

@kStaticDictionaryHashWords = external constant [32768 x i16], align 16
@kStaticDictionaryHashLengths = external constant [32768 x i8], align 16

; Function Attrs: alwaysinline nounwind uwtable
define internal i32 @brotli_min_int(i32 noundef %0, i32 noundef %1) #3 {
  %3 = alloca i32, align 4
  %4 = alloca i32, align 4
  store i32 %0, ptr %3, align 4, !tbaa !8
  store i32 %1, ptr %4, align 4, !tbaa !8
  %5 = load i32, ptr %3, align 4, !tbaa !8
  %6 = load i32, ptr %4, align 4, !tbaa !8
  %7 = icmp slt i32 %5, %6
  br i1 %7, label %8, label %10

8:                                                ; preds = %2
  %9 = load i32, ptr %3, align 4, !tbaa !8
  br label %12

10:                                               ; preds = %2
  %11 = load i32, ptr %4, align 4, !tbaa !8
  br label %12

12:                                               ; preds = %10, %8
  %13 = phi i32 [ %9, %8 ], [ %11, %10 ]
  ret i32 %13
}

; Function Attrs: nounwind uwtable
define i32 @BrotliEncoderAttachPreparedDictionary(ptr noundef %0, ptr noundef %1) #0 {
  %3 = alloca i32, align 4
  %4 = alloca ptr, align 8
  %5 = alloca ptr, align 8
  %6 = alloca ptr, align 8
  %7 = alloca i32, align 4
  %8 = alloca ptr, align 8
  %9 = alloca ptr, align 8
  %10 = alloca ptr, align 8
  %11 = alloca i32, align 4
  %12 = alloca ptr, align 8
  %13 = alloca i32, align 4
  %14 = alloca i32, align 4
  %15 = alloca i64, align 8
  store ptr %0, ptr %4, align 8, !tbaa !3
  store ptr %1, ptr %5, align 8, !tbaa !102
  call void @llvm.lifetime.start.p0(i64 8, ptr %6) #10
  %16 = load ptr, ptr %5, align 8, !tbaa !102
  store ptr %16, ptr %6, align 8, !tbaa !102
  call void @llvm.lifetime.start.p0(i64 4, ptr %7) #10
  %17 = load ptr, ptr %6, align 8, !tbaa !102
  %18 = load i32, ptr %17, align 4, !tbaa !8
  store i32 %18, ptr %7, align 4, !tbaa !8
  call void @llvm.lifetime.start.p0(i64 8, ptr %8) #10
  store ptr null, ptr %8, align 8, !tbaa !105
  %19 = load i32, ptr %7, align 4, !tbaa !8
  %20 = icmp eq i32 %19, -558043678
  br i1 %20, label %21, label %30

21:                                               ; preds = %2
  call void @llvm.lifetime.start.p0(i64 8, ptr %9) #10
  %22 = load ptr, ptr %6, align 8, !tbaa !102
  store ptr %22, ptr %9, align 8, !tbaa !98
  %23 = load ptr, ptr %9, align 8, !tbaa !98
  %24 = getelementptr inbounds nuw %struct.ManagedDictionary, ptr %23, i32 0, i32 2
  %25 = load ptr, ptr %24, align 8, !tbaa !100
  %26 = load i32, ptr %25, align 4, !tbaa !8
  store i32 %26, ptr %7, align 4, !tbaa !8
  %27 = load ptr, ptr %9, align 8, !tbaa !98
  %28 = getelementptr inbounds nuw %struct.ManagedDictionary, ptr %27, i32 0, i32 2
  %29 = load ptr, ptr %28, align 8, !tbaa !100
  store ptr %29, ptr %6, align 8, !tbaa !102
  call void @llvm.lifetime.end.p0(i64 8, ptr %9) #10
  br label %30

30:                                               ; preds = %21, %2
  %31 = load ptr, ptr %4, align 8, !tbaa !3
  %32 = getelementptr inbounds nuw %struct.BrotliEncoderStateStruct, ptr %31, i32 0, i32 0
  %33 = getelementptr inbounds nuw %struct.BrotliEncoderParams, ptr %32, i32 0, i32 10
  store ptr %33, ptr %8, align 8, !tbaa !105
  %34 = load i32, ptr %7, align 4, !tbaa !8
  %35 = icmp eq i32 %34, -558043680
  br i1 %35, label %39, label %36

36:                                               ; preds = %30
  %37 = load i32, ptr %7, align 4, !tbaa !8
  %38 = icmp eq i32 %37, -558043677
  br i1 %38, label %39, label %51

39:                                               ; preds = %36, %30
  call void @llvm.lifetime.start.p0(i64 8, ptr %10) #10
  %40 = load ptr, ptr %6, align 8, !tbaa !102
  store ptr %40, ptr %10, align 8, !tbaa !107
  %41 = load ptr, ptr %8, align 8, !tbaa !105
  %42 = getelementptr inbounds nuw %struct.SharedEncoderDictionary, ptr %41, i32 0, i32 1
  %43 = load ptr, ptr %10, align 8, !tbaa !107
  %44 = call i32 @AttachPreparedDictionary(ptr noundef %42, ptr noundef %43)
  %45 = icmp ne i32 %44, 0
  br i1 %45, label %47, label %46

46:                                               ; preds = %39
  store i32 0, ptr %3, align 4
  store i32 1, ptr %11, align 4
  br label %48

47:                                               ; preds = %39
  store i32 0, ptr %11, align 4
  br label %48

48:                                               ; preds = %47, %46
  call void @llvm.lifetime.end.p0(i64 8, ptr %10) #10
  %49 = load i32, ptr %11, align 4
  switch i32 %49, label %182 [
    i32 0, label %50
  ]

50:                                               ; preds = %48
  br label %181

51:                                               ; preds = %36
  %52 = load i32, ptr %7, align 4, !tbaa !8
  %53 = icmp eq i32 %52, -558043679
  br i1 %53, label %54, label %179

54:                                               ; preds = %51
  call void @llvm.lifetime.start.p0(i64 8, ptr %12) #10
  %55 = load ptr, ptr %6, align 8, !tbaa !102
  store ptr %55, ptr %12, align 8, !tbaa !105
  call void @llvm.lifetime.start.p0(i64 4, ptr %13) #10
  %56 = load ptr, ptr %8, align 8, !tbaa !105
  %57 = getelementptr inbounds nuw %struct.SharedEncoderDictionary, ptr %56, i32 0, i32 2
  %58 = getelementptr inbounds nuw %struct.ContextualEncoderDictionary, ptr %57, i32 0, i32 0
  %59 = load i32, ptr %58, align 8, !tbaa !109
  %60 = icmp ne i32 %59, 0
  br i1 %60, label %86, label %61

61:                                               ; preds = %54
  %62 = load ptr, ptr %8, align 8, !tbaa !105
  %63 = getelementptr inbounds nuw %struct.SharedEncoderDictionary, ptr %62, i32 0, i32 2
  %64 = getelementptr inbounds nuw %struct.ContextualEncoderDictionary, ptr %63, i32 0, i32 1
  %65 = load i8, ptr %64, align 4, !tbaa !110
  %66 = zext i8 %65 to i32
  %67 = icmp eq i32 %66, 1
  br i1 %67, label %68, label %86

68:                                               ; preds = %61
  %69 = load ptr, ptr %8, align 8, !tbaa !105
  %70 = getelementptr inbounds nuw %struct.SharedEncoderDictionary, ptr %69, i32 0, i32 2
  %71 = getelementptr inbounds nuw %struct.ContextualEncoderDictionary, ptr %70, i32 0, i32 3
  %72 = getelementptr inbounds [64 x ptr], ptr %71, i64 0, i64 0
  %73 = load ptr, ptr %72, align 8, !tbaa !111
  %74 = getelementptr inbounds nuw %struct.BrotliEncoderDictionary, ptr %73, i32 0, i32 4
  %75 = load ptr, ptr %74, align 8, !tbaa !112
  %76 = icmp eq ptr %75, @kStaticDictionaryHashWords
  br i1 %76, label %77, label %86

77:                                               ; preds = %68
  %78 = load ptr, ptr %8, align 8, !tbaa !105
  %79 = getelementptr inbounds nuw %struct.SharedEncoderDictionary, ptr %78, i32 0, i32 2
  %80 = getelementptr inbounds nuw %struct.ContextualEncoderDictionary, ptr %79, i32 0, i32 3
  %81 = getelementptr inbounds [64 x ptr], ptr %80, i64 0, i64 0
  %82 = load ptr, ptr %81, align 8, !tbaa !111
  %83 = getelementptr inbounds nuw %struct.BrotliEncoderDictionary, ptr %82, i32 0, i32 5
  %84 = load ptr, ptr %83, align 8, !tbaa !113
  %85 = icmp eq ptr %84, @kStaticDictionaryHashLengths
  br label %86

86:                                               ; preds = %77, %68, %61, %54
  %87 = phi i1 [ false, %68 ], [ false, %61 ], [ false, %54 ], [ %85, %77 ]
  %88 = zext i1 %87 to i32
  store i32 %88, ptr %13, align 4, !tbaa !8
  call void @llvm.lifetime.start.p0(i64 4, ptr %14) #10
  %89 = load ptr, ptr %12, align 8, !tbaa !105
  %90 = getelementptr inbounds nuw %struct.SharedEncoderDictionary, ptr %89, i32 0, i32 2
  %91 = getelementptr inbounds nuw %struct.ContextualEncoderDictionary, ptr %90, i32 0, i32 0
  %92 = load i32, ptr %91, align 8, !tbaa !109
  %93 = icmp ne i32 %92, 0
  br i1 %93, label %119, label %94

94:                                               ; preds = %86
  %95 = load ptr, ptr %12, align 8, !tbaa !105
  %96 = getelementptr inbounds nuw %struct.SharedEncoderDictionary, ptr %95, i32 0, i32 2
  %97 = getelementptr inbounds nuw %struct.ContextualEncoderDictionary, ptr %96, i32 0, i32 1
  %98 = load i8, ptr %97, align 4, !tbaa !110
  %99 = zext i8 %98 to i32
  %100 = icmp eq i32 %99, 1
  br i1 %100, label %101, label %119

101:                                              ; preds = %94
  %102 = load ptr, ptr %12, align 8, !tbaa !105
  %103 = getelementptr inbounds nuw %struct.SharedEncoderDictionary, ptr %102, i32 0, i32 2
  %104 = getelementptr inbounds nuw %struct.ContextualEncoderDictionary, ptr %103, i32 0, i32 3
  %105 = getelementptr inbounds [64 x ptr], ptr %104, i64 0, i64 0
  %106 = load ptr, ptr %105, align 8, !tbaa !111
  %107 = getelementptr inbounds nuw %struct.BrotliEncoderDictionary, ptr %106, i32 0, i32 4
  %108 = load ptr, ptr %107, align 8, !tbaa !112
  %109 = icmp eq ptr %108, @kStaticDictionaryHashWords
  br i1 %109, label %110, label %119

110:                                              ; preds = %101
  %111 = load ptr, ptr %12, align 8, !tbaa !105
  %112 = getelementptr inbounds nuw %struct.SharedEncoderDictionary, ptr %111, i32 0, i32 2
  %113 = getelementptr inbounds nuw %struct.ContextualEncoderDictionary, ptr %112, i32 0, i32 3
  %114 = getelementptr inbounds [64 x ptr], ptr %113, i64 0, i64 0
  %115 = load ptr, ptr %114, align 8, !tbaa !111
  %116 = getelementptr inbounds nuw %struct.BrotliEncoderDictionary, ptr %115, i32 0, i32 5
  %117 = load ptr, ptr %116, align 8, !tbaa !113
  %118 = icmp eq ptr %117, @kStaticDictionaryHashLengths
  br label %119

119:                                              ; preds = %110, %101, %94, %86
  %120 = phi i1 [ false, %101 ], [ false, %94 ], [ false, %86 ], [ %118, %110 ]
  %121 = zext i1 %120 to i32
  store i32 %121, ptr %14, align 4, !tbaa !8
  call void @llvm.lifetime.start.p0(i64 8, ptr %15) #10
  %122 = load ptr, ptr %4, align 8, !tbaa !3
  %123 = getelementptr inbounds nuw %struct.BrotliEncoderStateStruct, ptr %122, i32 0, i32 36
  %124 = load i32, ptr %123, align 4, !tbaa !10
  %125 = icmp ne i32 %124, 0
  br i1 %125, label %126, label %127

126:                                              ; preds = %119
  store i32 0, ptr %3, align 4
  store i32 1, ptr %11, align 4
  br label %176

127:                                              ; preds = %119
  %128 = load ptr, ptr %8, align 8, !tbaa !105
  %129 = getelementptr inbounds nuw %struct.SharedEncoderDictionary, ptr %128, i32 0, i32 3
  %130 = load i32, ptr %129, align 8, !tbaa !114
  %131 = load ptr, ptr %12, align 8, !tbaa !105
  %132 = getelementptr inbounds nuw %struct.SharedEncoderDictionary, ptr %131, i32 0, i32 3
  %133 = load i32, ptr %132, align 8, !tbaa !114
  %134 = call i32 @brotli_min_int(i32 noundef %130, i32 noundef %133)
  %135 = load ptr, ptr %8, align 8, !tbaa !105
  %136 = getelementptr inbounds nuw %struct.SharedEncoderDictionary, ptr %135, i32 0, i32 3
  store i32 %134, ptr %136, align 8, !tbaa !114
  store i64 0, ptr %15, align 8, !tbaa !75
  br label %137

137:                                              ; preds = %157, %127
  %138 = load i64, ptr %15, align 8, !tbaa !75
  %139 = load ptr, ptr %12, align 8, !tbaa !105
  %140 = getelementptr inbounds nuw %struct.SharedEncoderDictionary, ptr %139, i32 0, i32 1
  %141 = getelementptr inbounds nuw %struct.CompoundDictionary, ptr %140, i32 0, i32 0
  %142 = load i64, ptr %141, align 8, !tbaa !115
  %143 = icmp ult i64 %138, %142
  br i1 %143, label %144, label %160

144:                                              ; preds = %137
  %145 = load ptr, ptr %8, align 8, !tbaa !105
  %146 = getelementptr inbounds nuw %struct.SharedEncoderDictionary, ptr %145, i32 0, i32 1
  %147 = load ptr, ptr %12, align 8, !tbaa !105
  %148 = getelementptr inbounds nuw %struct.SharedEncoderDictionary, ptr %147, i32 0, i32 1
  %149 = getelementptr inbounds nuw %struct.CompoundDictionary, ptr %148, i32 0, i32 2
  %150 = load i64, ptr %15, align 8, !tbaa !75
  %151 = getelementptr inbounds nuw [16 x ptr], ptr %149, i64 0, i64 %150
  %152 = load ptr, ptr %151, align 8, !tbaa !107
  %153 = call i32 @AttachPreparedDictionary(ptr noundef %146, ptr noundef %152)
  %154 = icmp ne i32 %153, 0
  br i1 %154, label %156, label %155

155:                                              ; preds = %144
  store i32 0, ptr %3, align 4
  store i32 1, ptr %11, align 4
  br label %176

156:                                              ; preds = %144
  br label %157

157:                                              ; preds = %156
  %158 = load i64, ptr %15, align 8, !tbaa !75
  %159 = add i64 %158, 1
  store i64 %159, ptr %15, align 8, !tbaa !75
  br label %137, !llvm.loop !116

160:                                              ; preds = %137
  %161 = load i32, ptr %14, align 4, !tbaa !8
  %162 = icmp ne i32 %161, 0
  br i1 %162, label %175, label %163

163:                                              ; preds = %160
  %164 = load i32, ptr %13, align 4, !tbaa !8
  %165 = icmp ne i32 %164, 0
  br i1 %165, label %167, label %166

166:                                              ; preds = %163
  store i32 0, ptr %3, align 4
  store i32 1, ptr %11, align 4
  br label %176

167:                                              ; preds = %163
  %168 = load ptr, ptr %8, align 8, !tbaa !105
  %169 = getelementptr inbounds nuw %struct.SharedEncoderDictionary, ptr %168, i32 0, i32 2
  %170 = load ptr, ptr %12, align 8, !tbaa !105
  %171 = getelementptr inbounds nuw %struct.SharedEncoderDictionary, ptr %170, i32 0, i32 2
  call void @llvm.memcpy.p0.p0.i64(ptr align 8 %169, ptr align 8 %171, i64 768, i1 false), !tbaa.struct !117
  %172 = load ptr, ptr %8, align 8, !tbaa !105
  %173 = getelementptr inbounds nuw %struct.SharedEncoderDictionary, ptr %172, i32 0, i32 2
  %174 = getelementptr inbounds nuw %struct.ContextualEncoderDictionary, ptr %173, i32 0, i32 4
  store i64 0, ptr %174, align 8, !tbaa !123
  br label %175

175:                                              ; preds = %167, %160
  store i32 0, ptr %11, align 4
  br label %176

176:                                              ; preds = %175, %166, %155, %126
  call void @llvm.lifetime.end.p0(i64 8, ptr %15) #10
  call void @llvm.lifetime.end.p0(i64 4, ptr %14) #10
  call void @llvm.lifetime.end.p0(i64 4, ptr %13) #10
  call void @llvm.lifetime.end.p0(i64 8, ptr %12) #10
  %177 = load i32, ptr %11, align 4
  switch i32 %177, label %182 [
    i32 0, label %178
  ]

178:                                              ; preds = %176
  br label %180

179:                                              ; preds = %51
  store i32 0, ptr %3, align 4
  store i32 1, ptr %11, align 4
  br label %182

180:                                              ; preds = %178
  br label %181

181:                                              ; preds = %180, %50
  store i32 1, ptr %3, align 4
  store i32 1, ptr %11, align 4
  br label %182

182:                                              ; preds = %181, %179, %176, %48
  call void @llvm.lifetime.end.p0(i64 8, ptr %8) #10
  call void @llvm.lifetime.end.p0(i64 4, ptr %7) #10
  call void @llvm.lifetime.end.p0(i64 8, ptr %6) #10
  %183 = load i32, ptr %3, align 4
  ret i32 %183
}