; Function Attrs: nounwind uwtable
define range(i32 0, 2) i32 @BrotliEncoderAttachPreparedDictionary(ptr noundef %0, ptr noundef %1) local_unnamed_addr #1 {
  %3 = load i32, ptr %1, align 4, !tbaa !59
  %4 = icmp eq i32 %3, -558043678
  br i1 %4, label %5, label %9

5:                                                ; preds = %2
  %6 = getelementptr inbounds nuw i8, ptr %1, i64 32
  %7 = load ptr, ptr %6, align 8, !tbaa !602
  %8 = load i32, ptr %7, align 4, !tbaa !59
  br label %9

9:                                                ; preds = %5, %2
  %.043 = phi i32 [ %8, %5 ], [ %3, %2 ]
  %.042 = phi ptr [ %7, %5 ], [ %1, %2 ]
  switch i32 %.043, label %.critedge [
    i32 -558043677, label %10
    i32 -558043680, label %10
    i32 -558043679, label %13
  ]

10:                                               ; preds = %9, %9
  %11 = getelementptr inbounds nuw i8, ptr %0, i64 88
  %12 = tail call i32 @AttachPreparedDictionary(ptr noundef nonnull %11, ptr noundef nonnull %.042) #18
  %.not50.not = icmp eq i32 %12, 0
  br i1 %.not50.not, label %.critedge, label %73

13:                                               ; preds = %9
  %14 = getelementptr inbounds nuw i8, ptr %0, i64 624
  %15 = load i32, ptr %14, align 8, !tbaa !605
  %.not = icmp eq i32 %15, 0
  br i1 %.not, label %16, label %30

16:                                               ; preds = %13
  %17 = getelementptr inbounds nuw i8, ptr %0, i64 628
  %18 = load i8, ptr %17, align 4, !tbaa !606
  %19 = icmp eq i8 %18, 1
  br i1 %19, label %20, label %30

20:                                               ; preds = %16
  %21 = getelementptr inbounds nuw i8, ptr %0, i64 696
  %22 = load ptr, ptr %21, align 8, !tbaa !580
  %23 = getelementptr inbounds nuw i8, ptr %22, i64 24
  %24 = load ptr, ptr %23, align 8, !tbaa !607
  %25 = icmp eq ptr %24, @kStaticDictionaryHashWords
  br i1 %25, label %26, label %30

26:                                               ; preds = %20
  %27 = getelementptr inbounds nuw i8, ptr %22, i64 32
  %28 = load ptr, ptr %27, align 8, !tbaa !608
  %29 = icmp eq ptr %28, @kStaticDictionaryHashLengths
  br label %30

30:                                               ; preds = %26, %20, %16, %13
  %31 = phi i1 [ false, %20 ], [ false, %16 ], [ false, %13 ], [ %29, %26 ]
  %32 = getelementptr inbounds nuw i8, ptr %.042, i64 544
  %33 = load i32, ptr %32, align 8, !tbaa !605
  %.not47 = icmp eq i32 %33, 0
  br i1 %.not47, label %34, label %48

34:                                               ; preds = %30
  %35 = getelementptr inbounds nuw i8, ptr %.042, i64 548
  %36 = load i8, ptr %35, align 4, !tbaa !606
  %37 = icmp eq i8 %36, 1
  br i1 %37, label %38, label %48

38:                                               ; preds = %34
  %39 = getelementptr inbounds nuw i8, ptr %.042, i64 616
  %40 = load ptr, ptr %39, align 8, !tbaa !580
  %41 = getelementptr inbounds nuw i8, ptr %40, i64 24
  %42 = load ptr, ptr %41, align 8, !tbaa !607
  %43 = icmp eq ptr %42, @kStaticDictionaryHashWords
  br i1 %43, label %44, label %48

44:                                               ; preds = %38
  %45 = getelementptr inbounds nuw i8, ptr %40, i64 32
  %46 = load ptr, ptr %45, align 8, !tbaa !608
  %47 = icmp eq ptr %46, @kStaticDictionaryHashLengths
  br label %48

48:                                               ; preds = %44, %38, %34, %30
  %49 = phi i1 [ false, %38 ], [ false, %34 ], [ false, %30 ], [ %47, %44 ]
  %50 = getelementptr inbounds nuw i8, ptr %0, i64 6972
  %51 = load i32, ptr %50, align 4, !tbaa !3
  %.not48 = icmp eq i32 %51, 0
  br i1 %.not48, label %52, label %.critedge

52:                                               ; preds = %48
  %53 = getelementptr inbounds nuw i8, ptr %0, i64 1392
  %54 = load i32, ptr %53, align 8, !tbaa !609
  %55 = getelementptr inbounds nuw i8, ptr %.042, i64 1312
  %56 = load i32, ptr %55, align 8, !tbaa !609
  %57 = tail call i32 @llvm.smin.i32(i32 %54, i32 %56)
  store i32 %57, ptr %53, align 8, !tbaa !609
  %58 = getelementptr inbounds nuw i8, ptr %.042, i64 8
  %59 = load i64, ptr %58, align 8, !tbaa !610
  %.not52 = icmp eq i64 %59, 0
  br i1 %.not52, label %._crit_edge, label %.lr.ph

.lr.ph:                                           ; preds = %52
  %60 = getelementptr inbounds nuw i8, ptr %0, i64 88
  %61 = getelementptr inbounds nuw i8, ptr %.042, i64 24
  br label %66

62:                                               ; preds = %66
  %63 = add nuw i64 %.051, 1
  %64 = load i64, ptr %58, align 8, !tbaa !610
  %65 = icmp ult i64 %63, %64
  br i1 %65, label %66, label %._crit_edge, !llvm.loop !611

66:                                               ; preds = %.lr.ph, %62
  %.051 = phi i64 [ 0, %.lr.ph ], [ %63, %62 ]
  %67 = getelementptr inbounds nuw [16 x ptr], ptr %61, i64 0, i64 %.051
  %68 = load ptr, ptr %67, align 8, !tbaa !612
  %69 = tail call i32 @AttachPreparedDictionary(ptr noundef nonnull %60, ptr noundef %68) #18
  %.not49 = icmp eq i32 %69, 0
  br i1 %.not49, label %.critedge, label %62

._crit_edge:                                      ; preds = %62, %52
  br i1 %49, label %73, label %70

70:                                               ; preds = %._crit_edge
  br i1 %31, label %71, label %.critedge

71:                                               ; preds = %70
  tail call void @llvm.memcpy.p0.p0.i64(ptr noundef nonnull align 8 dereferenceable(768) %14, ptr noundef nonnull align 8 dereferenceable(768) %32, i64 768, i1 false), !tbaa.struct !614
  %72 = getelementptr inbounds nuw i8, ptr %0, i64 1208
  store i64 0, ptr %72, align 8, !tbaa !615
  br label %73

73:                                               ; preds = %71, %._crit_edge, %10
  br label %.critedge

.critedge:                                        ; preds = %66, %48, %70, %9, %10, %73
  %.1 = phi i32 [ 1, %73 ], [ 0, %10 ], [ 0, %9 ], [ 0, %70 ], [ 0, %48 ], [ 0, %66 ]
  ret i32 %.1
}